; ModuleID = '21/141.c'
source_filename = "21/141.c"
target datalayout = "e-m:e-p270:32:32-p271:32:32-p272:64:64-i64:64-f80:128-n8:16:32:64-S128"
target triple = "x86_64-pc-linux-gnu"

@.str = private unnamed_addr constant [3 x i8] c"%d\00", align 1
@.str.1 = private unnamed_addr constant [4 x i8] c",%d\00", align 1

; Function Attrs: noinline nounwind uwtable
define dso_local void @main() #0 {
  %1 = alloca i32, align 4
  %2 = alloca i32, align 4
  %3 = alloca i32, align 4
  %4 = alloca [300 x i32], align 16
  %5 = alloca float, align 4
  %6 = alloca float, align 4
  %7 = alloca float, align 4
  %8 = alloca [300 x float], align 16
  store float 0.000000e+00, float* %5, align 4
  %9 = call i32 (i8*, ...) @__isoc99_scanf(i8* getelementptr inbounds ([3 x i8], [3 x i8]* @.str, i64 0, i64 0), i32* %1)
  store i32 0, i32* %2, align 4
  br label %10

10:                                               ; preds = %26, %0
  %11 = load i32, i32* %2, align 4
  %12 = load i32, i32* %1, align 4
  %13 = icmp slt i32 %11, %12
  br i1 %13, label %14, label %29

14:                                               ; preds = %10
  %15 = load i32, i32* %2, align 4
  %16 = sext i32 %15 to i64
  %17 = getelementptr inbounds [300 x i32], [300 x i32]* %4, i64 0, i64 %16
  %18 = call i32 (i8*, ...) @__isoc99_scanf(i8* getelementptr inbounds ([3 x i8], [3 x i8]* @.str, i64 0, i64 0), i32* %17)
  %19 = load float, float* %5, align 4
  %20 = load i32, i32* %2, align 4
  %21 = sext i32 %20 to i64
  %22 = getelementptr inbounds [300 x i32], [300 x i32]* %4, i64 0, i64 %21
  %23 = load i32, i32* %22, align 4
  %24 = sitofp i32 %23 to float
  %25 = fadd float %19, %24
  store float %25, float* %5, align 4
  br label %26

26:                                               ; preds = %14
  %27 = load i32, i32* %2, align 4
  %28 = add nsw i32 %27, 1
  store i32 %28, i32* %2, align 4
  br label %10

29:                                               ; preds = %10
  %30 = load float, float* %5, align 4
  %31 = load i32, i32* %1, align 4
  %32 = sitofp i32 %31 to float
  %33 = fdiv float %30, %32
  store float %33, float* %5, align 4
  store i32 0, i32* %2, align 4
  br label %34

34:                                               ; preds = %52, %29
  %35 = load i32, i32* %2, align 4
  %36 = load i32, i32* %1, align 4
  %37 = icmp slt i32 %35, %36
  br i1 %37, label %38, label %55

38:                                               ; preds = %34
  %39 = load i32, i32* %2, align 4
  %40 = sext i32 %39 to i64
  %41 = getelementptr inbounds [300 x i32], [300 x i32]* %4, i64 0, i64 %40
  %42 = load i32, i32* %41, align 4
  %43 = sitofp i32 %42 to float
  %44 = load float, float* %5, align 4
  %45 = fsub float %43, %44
  %46 = fpext float %45 to double
  %47 = call double @llvm.fabs.f64(double %46)
  %48 = fptrunc double %47 to float
  %49 = load i32, i32* %2, align 4
  %50 = sext i32 %49 to i64
  %51 = getelementptr inbounds [300 x float], [300 x float]* %8, i64 0, i64 %50
  store float %48, float* %51, align 4
  br label %52

52:                                               ; preds = %38
  %53 = load i32, i32* %2, align 4
  %54 = add nsw i32 %53, 1
  store i32 %54, i32* %2, align 4
  br label %34

55:                                               ; preds = %34
  store i32 0, i32* %2, align 4
  br label %56

56:                                               ; preds = %116, %55
  %57 = load i32, i32* %2, align 4
  %58 = load i32, i32* %1, align 4
  %59 = sub nsw i32 %58, 1
  %60 = icmp slt i32 %57, %59
  br i1 %60, label %61, label %119

61:                                               ; preds = %56
  %62 = load i32, i32* %2, align 4
  %63 = add nsw i32 %62, 1
  store i32 %63, i32* %3, align 4
  br label %64

64:                                               ; preds = %112, %61
  %65 = load i32, i32* %3, align 4
  %66 = load i32, i32* %1, align 4
  %67 = icmp slt i32 %65, %66
  br i1 %67, label %68, label %115

68:                                               ; preds = %64
  %69 = load i32, i32* %2, align 4
  %70 = sext i32 %69 to i64
  %71 = getelementptr inbounds [300 x float], [300 x float]* %8, i64 0, i64 %70
  %72 = load float, float* %71, align 4
  %73 = load i32, i32* %3, align 4
  %74 = sext i32 %73 to i64
  %75 = getelementptr inbounds [300 x float], [300 x float]* %8, i64 0, i64 %74
  %76 = load float, float* %75, align 4
  %77 = fcmp olt float %72, %76
  br i1 %77, label %78, label %111

78:                                               ; preds = %68
  %79 = load i32, i32* %2, align 4
  %80 = sext i32 %79 to i64
  %81 = getelementptr inbounds [300 x i32], [300 x i32]* %4, i64 0, i64 %80
  %82 = load i32, i32* %81, align 4
  %83 = sitofp i32 %82 to float
  store float %83, float* %6, align 4
  %84 = load i32, i32* %3, align 4
  %85 = sext i32 %84 to i64
  %86 = getelementptr inbounds [300 x i32], [300 x i32]* %4, i64 0, i64 %85
  %87 = load i32, i32* %86, align 4
  %88 = load i32, i32* %2, align 4
  %89 = sext i32 %88 to i64
  %90 = getelementptr inbounds [300 x i32], [300 x i32]* %4, i64 0, i64 %89
  store i32 %87, i32* %90, align 4
  %91 = load float, float* %6, align 4
  %92 = fptosi float %91 to i32
  %93 = load i32, i32* %3, align 4
  %94 = sext i32 %93 to i64
  %95 = getelementptr inbounds [300 x i32], [300 x i32]* %4, i64 0, i64 %94
  store i32 %92, i32* %95, align 4
  %96 = load i32, i32* %2, align 4
  %97 = sext i32 %96 to i64
  %98 = getelementptr inbounds [300 x float], [300 x float]* %8, i64 0, i64 %97
  %99 = load float, float* %98, align 4
  store float %99, float* %7, align 4
  %100 = load i32, i32* %3, align 4
  %101 = sext i32 %100 to i64
  %102 = getelementptr inbounds [300 x float], [300 x float]* %8, i64 0, i64 %101
  %103 = load float, float* %102, align 4
  %104 = load i32, i32* %2, align 4
  %105 = sext i32 %104 to i64
  %106 = getelementptr inbounds [300 x float], [300 x float]* %8, i64 0, i64 %105
  store float %103, float* %106, align 4
  %107 = load float, float* %7, align 4
  %108 = load i32, i32* %3, align 4
  %109 = sext i32 %108 to i64
  %110 = getelementptr inbounds [300 x float], [300 x float]* %8, i64 0, i64 %109
  store float %107, float* %110, align 4
  br label %111

111:                                              ; preds = %78, %68
  br label %112

112:                                              ; preds = %111
  %113 = load i32, i32* %3, align 4
  %114 = add nsw i32 %113, 1
  store i32 %114, i32* %3, align 4
  br label %64

115:                                              ; preds = %64
  br label %116

116:                                              ; preds = %115
  %117 = load i32, i32* %2, align 4
  %118 = add nsw i32 %117, 1
  store i32 %118, i32* %2, align 4
  br label %56

119:                                              ; preds = %56
  %120 = getelementptr inbounds [300 x i32], [300 x i32]* %4, i64 0, i64 0
  %121 = load i32, i32* %120, align 16
  %122 = call i32 (i8*, ...) @printf(i8* getelementptr inbounds ([3 x i8], [3 x i8]* @.str, i64 0, i64 0), i32 %121)
  store i32 1, i32* %2, align 4
  br label %123

123:                                              ; preds = %142, %119
  %124 = load i32, i32* %2, align 4
  %125 = load i32, i32* %1, align 4
  %126 = icmp slt i32 %124, %125
  br i1 %126, label %127, label %145

127:                                              ; preds = %123
  %128 = load i32, i32* %2, align 4
  %129 = sext i32 %128 to i64
  %130 = getelementptr inbounds [300 x float], [300 x float]* %8, i64 0, i64 %129
  %131 = load float, float* %130, align 4
  %132 = getelementptr inbounds [300 x float], [300 x float]* %8, i64 0, i64 0
  %133 = load float, float* %132, align 16
  %134 = fcmp oeq float %131, %133
  br i1 %134, label %135, label %141

135:                                              ; preds = %127
  %136 = load i32, i32* %2, align 4
  %137 = sext i32 %136 to i64
  %138 = getelementptr inbounds [300 x i32], [300 x i32]* %4, i64 0, i64 %137
  %139 = load i32, i32* %138, align 4
  %140 = call i32 (i8*, ...) @printf(i8* getelementptr inbounds ([4 x i8], [4 x i8]* @.str.1, i64 0, i64 0), i32 %139)
  br label %141

141:                                              ; preds = %135, %127
  br label %142

142:                                              ; preds = %141
  %143 = load i32, i32* %2, align 4
  %144 = add nsw i32 %143, 1
  store i32 %144, i32* %2, align 4
  br label %123

145:                                              ; preds = %123
  ret void
}

declare dso_local i32 @__isoc99_scanf(i8*, ...) #1

; Function Attrs: nounwind readnone speculatable willreturn
declare double @llvm.fabs.f64(double) #2

declare dso_local i32 @printf(i8*, ...) #1


!llvm.module.flags = !{!0}
!llvm.ident = !{!1}

!0 = !{i32 1, !"wchar_size", i32 4}
!1 = !{!"clang version 10.0.0-4ubuntu1 "}
